(lp1
(lp2
F676
aF683
aF710
aF711
aF712
aF717
aF733
aF734
aF747
aF748
aF749
aF750
aF755
aF776
aF797
aF803
aF804
aF806
aF809
aF811
aF813
aF816
aF818
aF828
aF830
aF844
aF849
aF850
aF851
aF852
aF855
aF866
aF867
aF868
aF871
aF872
aF887
aF889
aF892
aF895
aF908
aF910
aF915
aF918
aF921
aF935
aF938
aF944
aF945
aF946
aF947
aF950
aF962
aF970
aF974
aF977
aF978
aF979
aF983
aF993
aF995
aF999
aF1003
aF1004
aF1005
aF1006
aF1017
aF1019
aF1021
aF1023
aF1026
aF1029
aF1035
aF1038
aF1052
aF1055
aF1056
aF1057
aF1060
aF1066
aF1069
aF1074
aF1075
aF1076
aF1077
aF1080
aF1084
aF1085
aF1086
aF1087
aF1088
aF1099
aF1100
aF1102
aF1104
aF1106
aF1107
aF1108
aF1110
aF1116
aF1118
aF1125
aF1129
aF1132
aF1133
aF1134
aF1137
aF1139
aF1144
aF1148
aF1156
aF1157
aF1160
aF1161
aF1163
aF1164
aF1165
aF1166
aF1167
aF1168
aF1169
aF1172
aF1174
aF1175
aF1176
aF1179
aF1180
aF1181
aF1183
aF1186
aF1187
aF1188
aF1189
aa(lp3
F0
aF1
aF2
aF3
aF4
aF6
aF7
aF10
aF14
aF17
aF21
aF22
aF23
aF24
aF25
aF26
aF27
aF30
aF31
aF39
aF41
aF43
aF48
aF50
aF54
aF55
aF58
aF59
aF60
aF63
aF64
aF65
aF66
aF67
aF68
aF69
aF70
aF71
aF72
aF74
aF82
aF87
aF88
aF91
aF93
aF101
aF104
aF107
aF108
aF110
aF111
aF114
aF116
aF120
aF121
aF124
aF125
aF129
aF131
aF134
aF137
aF138
aF140
aF141
aF147
aF151
aF156
aF157
aF162
aF165
aF166
aF167
aF170
aF172
aF173
aF176
aF181
aF184
aF185
aF192
aF202
aF204
aF205
aF207
aF208
aF216
aF219
aF222
aF233
aF234
aF249
aF278
aF280
aF320
aF330
aF350
aF351
aF361
aF373
aF374
aF375
aF376
aF383
aF391
aF392
aF407
aF443
aF571
aF600
aF656
aa(lp4
F44
aF164
aF188
aF189
aF217
aF218
aF220
aF221
aF223
aF235
aF236
aF237
aF238
aF239
aF240
aF241
aF242
aF252
aF253
aF256
aF258
aF260
aF261
aF271
aF273
aF301
aF365
aF451
aF453
aF534
aF552
aF553
aa(lp5
F402
aF447
aF594
aF654
aF655
aF677
aF691
aF709
aF719
aF720
aF721
aF722
aF752
aF759
aF761
aF762
aF763
aF765
aF814
aF831
aF845
aF875
aF878
aF879
aF880
aF882
aF884
aF885
aF902
aF903
aF904
aF919
aF920
aF968
aF992
aF1050
aF1115
aF1162
aF1177
aa(lp6
F257
aF267
aF274
aF304
aF311
aF314
aF315
aF337
aF344
aF358
aF385
aF417
aF485
aF615
aF616
aF617
aF635
aF636
aF1044
aF1061
aF1062
aF1182
aa(lp7
F490
aF843
aF861
aF957
aF961
aF963
aF964
aF965
aF966
aF984
aF985
aF1032
aF1054
aF1081
aF1082
aF1097
aF1098
aF1114
aF1143
aF1154
aF1155
aF1171
aa(lp8
F37
aF45
aF102
aF103
aF118
aF128
aF174
aF187
aF199
aF200
aF201
aF203
aF224
aF262
aF322
aF326
aF327
aF338
aF403
aF420
aF475
aF580
aa(lp9
F119
aF459
aF601
aF613
aF689
aF731
aF754
aF760
aF783
aF800
aF802
aF807
aF819
aF820
aF821
aF823
aF824
aF854
aF931
aF941
aF1049
aF1059
aa(lp10
F28
aF291
aF318
aF331
aF333
aF370
aF371
aF372
aF428
aF457
aF568
aF614
aF648
aF740
aF770
aF869
aF909
aF1033
aF1126
aF1127
aF1149
aF1158
aa(lp11
F11
aF49
aF84
aF85
aF86
aF132
aF155
aF171
aF215
aF231
aF232
aF247
aF284
aF288
aF307
aF367
aF387
aF463
aF482
aF562
aF564
aF606
aF714
aa(lp12
F42
aF159
aF209
aF210
aF211
aF269
aF292
aF366
aF499
aF507
aF545
aF547
aF550
aF667
aF668
aF673
aF791
aF1178
aa(lp13
F266
aF423
aF450
aF476
aF491
aF492
aF493
aF512
aF514
aF518
aF519
aF520
aF522
aF530
aF531
aF532
aF533
aF588
aa(lp14
F19
aF20
aF277
aF279
aF298
aF299
aF300
aF388
aF496
aF561
aF577
aF596
aF645
aF675
aF684
aF725
aF829
aF862
aF863
aF1002
aF1170
aa(lp15
F32
aF75
aF76
aF77
aF89
aF178
aF214
aF255
aF264
aF270
aF308
aF324
aF381
aF382
aF413
aF555
aF584
aF599
aa(lp16
F145
aF146
aF168
aF213
aF225
aF226
aF243
aF305
aF312
aF313
aF336
aF352
aF353
aF394
aF440
aF468
aF541
aF627
aa(lp17
F13
aF47
aF100
aF152
aF175
aF244
aF296
aF473
aF474
aF502
aF834
aF838
aF949
aF969
aF971
aF972
aF1009
aF1146
aa(lp18
F51
aF56
aF418
aF434
aF436
aF445
aF543
aF560
aF619
aF620
aF644
aF658
aF660
aF666
aF672
aF707
aF847
aF1121
aa(lp19
F190
aF429
aF801
aF835
aF839
aF924
aF1008
aF1040
aF1045
aF1046
aF1047
aF1072
aF1093
aF1140
aF1145
aa(lp20
F246
aF888
aF901
aF937
aF939
aF940
aF942
aF943
aF948
aF953
aF967
aF997
aF998
aF1000
aF1001
aF1015
aF1135
aa(lp21
F92
aF150
aF290
aF302
aF332
aF357
aF360
aF378
aF419
aF454
aF497
aF569
aF728
aa(lp22
F12
aF79
aF98
aF115
aF206
aF250
aF294
aF306
aF323
aF347
aF362
aF363
aF364
aF384
aF630
aa(lp23
F9
aF95
aF97
aF133
aF142
aF153
aF212
aF263
aF427
aF444
aF455
aF486
aF498
aF548
aF551
aF610
aa(lp24
F62
aF404
aF460
aF542
aF557
aF572
aF573
aF678
aF815
aF832
aF1016
aF1030
aF1043
aF1091
aF1092
aF1101
aF1128
aa(lp25
F508
aF739
aF792
aF865
aF900
aF932
aF934
aF952
aF975
aF980
aF982
aF1070
aF1083
aF1111
aF1112
aF1113
aF1124
aa(lp26
F602
aF603
aF629
aF637
aF638
aF729
aF782
aF827
aF930
aF994
aF1007
aF1051
aF1089
aa(lp27
F15
aF16
aF161
aF193
aF194
aF426
aF659
aF680
aF778
aF788
aF805
aF973
aa(lp28
F112
aF430
aF487
aF523
aF539
aF695
aF726
aF799
aF808
aF825
aF1028
aa(lp29
F227
aF335
aF379
aF409
aF699
aF912
aF925
aF926
aF951
aF1185
aa(lp30
F180
aF343
aF469
aF471
aF579
aF598
aF624
aF723
aF881
aF883
aF906
aF996
aF1068
aF1120
aa(lp31
F105
aF126
aF127
aF143
aF148
aF163
aF251
aF254
aF259
aF272
aF345
aF386
aa(lp32
F380
aF412
aF415
aF424
aF456
aF488
aF513
aF517
aF529
aF540
aF567
aF586
aF591
aF621
aF625
aF817
aa(lp33
F5
aF8
aF29
aF73
aF96
aF135
aF186
aF649
aF727
aF928
aF1078
aa(lp34
F36
aF196
aF197
aF390
aF556
aF559
aF576
aF628
aF639
aF640
aF896
aa(lp35
F732
aF738
aF777
aF784
aF785
aF787
aF822
aF853
aa(lp36
F122
aF139
aF342
aF431
aF432
aF494
aF623
aF701
aF702
aF764
aF905
aF933
aa(lp37
F319
aF479
aF565
aF696
aF812
aF927
aF956
aF960
aF976
aa(lp38
F34
aF78
aF183
aF328
aF425
aF449
aF626
aF856
aF917
aF1058
aa(lp39
F18
aF35
aF195
aF309
aF329
aF339
aF1020
aF1024
aF1025
aa(lp40
F718
aF730
aF743
aF745
aF746
aF758
aF766
aF780
aa(lp41
F393
aF416
aF446
aF500
aF528
aF563
aF690
aF846
aa(lp42
F575
aF604
aF671
aF795
aF981
aF988
aF1095
aF1109
aF1123
aa(lp43
F537
aF641
aF642
aF674
aF694
aF775
aF790
aa(lp44
F897
aF907
aF1039
aF1041
aF1042
aF1067
aF1117
aF1119
aF1150
aa(lp45
F144
aF538
aF589
aF611
aF704
aF751
aF913
aF1159
aa(lp46
F793
aF833
aF859
aF864
aF1011
aF1027
aF1131
aF1138
aF1184
aa(lp47
F340
aF399
aF478
aF581
aF582
aF989
aa(lp48
F81
aF99
aF106
aF130
aF406
aF505
aF650
aF923
aa(lp49
F609
aF618
aF653
aF682
aF698
aF700
aa(lp50
F631
aF741
aF742
aF810
aF826
aa(lp51
F158
aF433
aF661
aF662
aF663
aF681
aF693
aa(lp52
F570
aF687
aF688
aF716
aF724
aF737
aa(lp53
F922
aF1012
aF1013
aF1014
aF1037
aF1094
aF1096
aa(lp54
F355
aF437
aF464
aF685
aF705
aF756
aF842
aa(lp55
F310
aF566
aF670
aF857
aF858
aa(lp56
F154
aF789
aF955
aF959
aF991
aF1034
aF1064
aa(lp57
F198
aF285
aF287
aF408
aF891
aF893
aa(lp58
F117
aF229
aF248
aF281
aF283
aF448
aa(lp59
F40
aF57
aF276
aF316
aF334
aa(lp60
F160
aF179
aF265
aF282
aF349
aF369
aa(lp61
F421
aF461
aF462
aF466
aF481
aF794
aa(lp62
F422
aF587
aF595
aF646
aF647
aa(lp63
F583
aF592
aF1173
aa(lp64
F1151
aF1152
aF1153
aa(lp65
F245
aF608
aF1090
aa(lp66
F465
aF536
aF554
aa(lp67
F524
aF525
aF848
aa(lp68
F321
aF735
aF1063
aa(lp69
F317
aF546
aF549
aa(lp70
F452
aF535
aF652
aF744
aF781
aa(lp71
F405
aF706
aF987
aF1022
aa(lp72
F169
aF757
aF767
aF877
aa(lp73
F1079
aF1103
aa(lp74
F898
aF1010
aa(lp75
F990
aF1142
aa(lp76
F837
aF841
aa(lp77
F836
aF840
aa(lp78
F772
aF774
aa(lp79
F768
aF769
aa(lp80
F632
aF643
aa(lp81
F503
aF504
aa(lp82
F396
aF458
aa(lp83
F441
aF442
aa(lp84
F228
aF400
aa(lp85
F356
aF397
aa(lp86
F354
aF395
aa(lp87
F325
aF341
aa(lp88
F574
aF708
aF736
aF911
aa(lp89
F438
aF470
aF495
aF515
aa(lp90
F38
aF53
aF83
aF113
aa(lp91
F665
aF753
aF1053
aF1073
aa(lp92
F929
aF954
aF958
aa(lp93
F182
aF346
aF389
aa(lp94
F286
aF410
aa(lp95
F414
aF516
aa(lp96
F1048
aF1071
aa(lp97
F297
aF1136
aa(lp98
F1130
aF1141
aa(lp99
F80
aF94
aa(lp100
F633
aF870
aa(lp101
F686
aF886
aa.